(lp0
(i__main__
preson
p1
(dp2
S'emaill'
p3
S'yjshm@sina.com'
p4
sS'birthday'
p5
S'0507'
p6
sS'tel'
p7
S'15886352832'
p8
sS'name'
p9
S'liuzhen'
p10
sba(i__main__
preson
p11
(dp12
g3
S'1231231@qq.com'
p13
sg5
S'0909'
p14
sg7
S'158888888888'
p15
sg9
S'liujaohuon'
p16
sba(i__main__
preson
p17
(dp18
g3
S'15888888@qq.com'
p19
sg5
S'1110'
p20
sg7
S'1558888888'
p21
sg9
S'liuyishan'
p22
sba.